target datalayout = "e-m:e-p270:32:32-p271:32:32-p272:64:64-i64:64-i128:128-f80:128-n8:16:32:64-S128"
target triple = "x86_64-pc-linux-gnu"

%struct.ma_biquad = type { i32, i32, %union.ma_biquad_coefficient, %union.ma_biquad_coefficient, %union.ma_biquad_coefficient, %union.ma_biquad_coefficient, %union.ma_biquad_coefficient, ptr, ptr, ptr, i32 }
%union.ma_biquad_coefficient = type { float }
%struct.ma_notch2 = type { %struct.ma_biquad }
%struct.ma_node_base = type { ptr, ptr, ptr, i16, i16, i16, i16, i32, [2 x i64], i64, i32, i32, ptr, ptr, [2 x %struct.ma_node_input_bus], [2 x %struct.ma_node_output_bus], ptr, i32 }
%struct.ma_node_input_bus = type { %struct.ma_node_output_bus, i32, i32, i8 }
%struct.ma_node_output_bus = type { ptr, i8, i8, i8, i32, i32, i32, i32, float, ptr, ptr, ptr }
%struct.ma_notch_node = type { %struct.ma_node_base, %struct.ma_notch2 }

; Function Attrs: nounwind uwtable
define i32 @ma_notch2_process_pcm_frames(ptr noundef %0, ptr noundef %1, ptr noundef %2, i64 noundef %3) #0 {
  %5 = alloca i32, align 4
  %6 = alloca ptr, align 8
  %7 = alloca ptr, align 8
  %8 = alloca ptr, align 8
  %9 = alloca i64, align 8
  store ptr %0, ptr %6, align 8, !tbaa !25
  store ptr %1, ptr %7, align 8, !tbaa !25
  store ptr %2, ptr %8, align 8, !tbaa !25
  store i64 %3, ptr %9, align 8, !tbaa !47
  %10 = load ptr, ptr %6, align 8, !tbaa !25
  %11 = icmp eq ptr %10, null
  br i1 %11, label %12, label %13

12:                                               ; preds = %4
  store i32 -2, ptr %5, align 4
  br label %20

13:                                               ; preds = %4
  %14 = load ptr, ptr %6, align 8, !tbaa !25
  %15 = getelementptr inbounds nuw %struct.ma_notch2, ptr %14, i32 0, i32 0
  %16 = load ptr, ptr %7, align 8, !tbaa !25
  %17 = load ptr, ptr %8, align 8, !tbaa !25
  %18 = load i64, ptr %9, align 8, !tbaa !47
  %19 = call i32 @ma_biquad_process_pcm_frames(ptr noundef %15, ptr noundef %16, ptr noundef %17, i64 noundef %18)
  store i32 %19, ptr %5, align 4
  br label %20

20:                                               ; preds = %13, %12
  %21 = load i32, ptr %5, align 4
  ret i32 %21
}

; Function Attrs: nounwind uwtable
define internal void @ma_notch_node_process_pcm_frames(ptr noundef %0, ptr noundef %1, ptr noundef %2, ptr noundef %3, ptr noundef %4) #0 {
  %6 = alloca ptr, align 8
  %7 = alloca ptr, align 8
  %8 = alloca ptr, align 8
  %9 = alloca ptr, align 8
  %10 = alloca ptr, align 8
  %11 = alloca ptr, align 8
  store ptr %0, ptr %6, align 8, !tbaa !25
  store ptr %1, ptr %7, align 8, !tbaa !826
  store ptr %2, ptr %8, align 8, !tbaa !3
  store ptr %3, ptr %9, align 8, !tbaa !826
  store ptr %4, ptr %10, align 8, !tbaa !3
  call void @llvm.lifetime.start.p0(i64 8, ptr %11) #16
  %12 = load ptr, ptr %6, align 8, !tbaa !25
  store ptr %12, ptr %11, align 8, !tbaa !25
  %13 = load ptr, ptr %11, align 8, !tbaa !25
  %14 = getelementptr inbounds nuw %struct.ma_notch_node, ptr %13, i32 0, i32 1
  %15 = load ptr, ptr %9, align 8, !tbaa !826
  %16 = getelementptr inbounds ptr, ptr %15, i64 0
  %17 = load ptr, ptr %16, align 8, !tbaa !353
  %18 = load ptr, ptr %7, align 8, !tbaa !826
  %19 = getelementptr inbounds ptr, ptr %18, i64 0
  %20 = load ptr, ptr %19, align 8, !tbaa !353
  %21 = load ptr, ptr %10, align 8, !tbaa !3
  %22 = load i32, ptr %21, align 4, !tbaa !8
  %23 = zext i32 %22 to i64
  %24 = call i32 @ma_notch2_process_pcm_frames(ptr noundef %14, ptr noundef %17, ptr noundef %20, i64 noundef %23)
  call void @llvm.lifetime.end.p0(i64 8, ptr %11) #16
  ret void
}