; Function Attrs: nofree norecurse nosync nounwind memory(readwrite, inaccessiblemem: write) uwtable
define internal void @ma_notch_node_process_pcm_frames(ptr noundef captures(address_is_null) %0, ptr noundef readonly captures(none) %1, ptr readnone captures(none) %2, ptr noundef readonly captures(none) %3, ptr noundef readonly captures(none) %4) #35 {
  %6 = getelementptr inbounds nuw i8, ptr %0, i64 360
  %7 = load ptr, ptr %3, align 8, !tbaa !423
  %8 = load ptr, ptr %1, align 8, !tbaa !423
  %9 = load i32, ptr %4, align 4, !tbaa !3
  %10 = zext i32 %9 to i64
  %11 = tail call i32 @ma_biquad_process_pcm_frames(ptr noundef nonnull %6, ptr noundef %7, ptr noundef %8, i64 noundef %10)
  ret void
}